target datalayout = "e-m:e-p270:32:32-p271:32:32-p272:64:64-i64:64-i128:128-f80:128-n8:16:32:64-S128"
target triple = "x86_64-pc-linux-gnu"

%class.ptr_vector = type { %class.vector }
%class.vector = type { ptr }
%"class.mbp::term" = type { %class.obj_ref, ptr, ptr, ptr, i16, %class.ptr_vector, %class.ptr_vector, %"struct.mbp::term::class_props" }
%class.obj_ref = type { ptr, ptr }
%"struct.mbp::term::class_props" = type { i8, i32, %class.bit_vector }
%class.bit_vector = type { i32, i32, ptr }

; Function Attrs: mustprogress nounwind uwtable
define linkonce_odr hidden void @_ZN6vectorIPN3mbp4termELb0EjEC2Ev(ptr noundef nonnull align 8 dereferenceable(8) %0) unnamed_addr #6 comdat align 2 {
  %2 = alloca ptr, align 8
  store ptr %0, ptr %2, align 8, !tbaa !42
  %3 = load ptr, ptr %2, align 8
  %4 = getelementptr inbounds nuw %class.vector, ptr %3, i32 0, i32 0
  store ptr null, ptr %4, align 8, !tbaa !44
  ret void
}

; Function Attrs: mustprogress uwtable
define linkonce_odr hidden noundef nonnull align 8 dereferenceable(8) ptr @_ZN6vectorIPN3mbp4termELb0EjE9push_backERKS2_(ptr noundef nonnull align 8 dereferenceable(8) %0, ptr noundef nonnull align 8 dereferenceable(8) %1) #4 comdat align 2 {
  %3 = alloca ptr, align 8
  %4 = alloca ptr, align 8
  store ptr %0, ptr %3, align 8, !tbaa !42
  store ptr %1, ptr %4, align 8, !tbaa !41
  %5 = load ptr, ptr %3, align 8
  %6 = getelementptr inbounds nuw %class.vector, ptr %5, i32 0, i32 0
  %7 = load ptr, ptr %6, align 8, !tbaa !44
  %8 = icmp eq ptr %7, null
  br i1 %8, label %19, label %9

9:                                                ; preds = %2
  %10 = getelementptr inbounds nuw %class.vector, ptr %5, i32 0, i32 0
  %11 = load ptr, ptr %10, align 8, !tbaa !44
  %12 = getelementptr inbounds i32, ptr %11, i64 -1
  %13 = load i32, ptr %12, align 4, !tbaa !27
  %14 = getelementptr inbounds nuw %class.vector, ptr %5, i32 0, i32 0
  %15 = load ptr, ptr %14, align 8, !tbaa !44
  %16 = getelementptr inbounds i32, ptr %15, i64 -2
  %17 = load i32, ptr %16, align 4, !tbaa !27
  %18 = icmp eq i32 %13, %17
  br i1 %18, label %19, label %20

19:                                               ; preds = %9, %2
  call void @_ZN6vectorIPN3mbp4termELb0EjE13expand_vectorEv(ptr noundef nonnull align 8 dereferenceable(8) %5)
  br label %20

20:                                               ; preds = %19, %9
  %21 = getelementptr inbounds nuw %class.vector, ptr %5, i32 0, i32 0
  %22 = load ptr, ptr %21, align 8, !tbaa !44
  %23 = getelementptr inbounds nuw %class.vector, ptr %5, i32 0, i32 0
  %24 = load ptr, ptr %23, align 8, !tbaa !44
  %25 = getelementptr inbounds i32, ptr %24, i64 -1
  %26 = load i32, ptr %25, align 4, !tbaa !27
  %27 = zext i32 %26 to i64
  %28 = getelementptr inbounds nuw ptr, ptr %22, i64 %27
  %29 = load ptr, ptr %4, align 8, !tbaa !41
  %30 = load ptr, ptr %29, align 8, !tbaa !20
  store ptr %30, ptr %28, align 8, !tbaa !20
  %31 = getelementptr inbounds nuw %class.vector, ptr %5, i32 0, i32 0
  %32 = load ptr, ptr %31, align 8, !tbaa !44
  %33 = getelementptr inbounds i32, ptr %32, i64 -1
  %34 = load i32, ptr %33, align 4, !tbaa !27
  %35 = add i32 %34, 1
  store i32 %35, ptr %33, align 4, !tbaa !27
  ret ptr %5
}

; Function Attrs: mustprogress nounwind uwtable
define linkonce_odr hidden void @_ZN10ptr_vectorIN3mbp4termEEC2Ev(ptr noundef nonnull align 8 dereferenceable(8) %0) unnamed_addr #6 comdat align 2 {
  %2 = alloca ptr, align 8
  store ptr %0, ptr %2, align 8, !tbaa !39
  %3 = load ptr, ptr %2, align 8
  call void @_ZN6vectorIPN3mbp4termELb0EjEC2Ev(ptr noundef nonnull align 8 dereferenceable(8) %3) #3
  ret void
}

; Function Attrs: mustprogress nounwind uwtable
define linkonce_odr hidden noundef nonnull align 8 dereferenceable(88) ptr @_ZNK3mbp4term8get_nextEv(ptr noundef nonnull align 8 dereferenceable(88) %0) #6 comdat align 2 {
  %2 = alloca ptr, align 8
  store ptr %0, ptr %2, align 8, !tbaa !20
  %3 = load ptr, ptr %2, align 8
  %4 = getelementptr inbounds nuw %"class.mbp::term", ptr %3, i32 0, i32 3
  %5 = load ptr, ptr %4, align 8, !tbaa !206
  ret ptr %5
}

; Function Attrs: mustprogress nounwind uwtable
define linkonce_odr hidden noundef zeroext i1 @_ZNK3mbp4term6is_cgrEv(ptr noundef nonnull align 8 dereferenceable(88) %0) #6 comdat align 2 {
  %2 = alloca ptr, align 8
  store ptr %0, ptr %2, align 8, !tbaa !20
  %3 = load ptr, ptr %2, align 8
  %4 = getelementptr inbounds nuw %"class.mbp::term", ptr %3, i32 0, i32 4
  %5 = load i16, ptr %4, align 8
  %6 = lshr i16 %5, 9
  %7 = and i16 %6, 1
  %8 = zext i16 %7 to i32
  %9 = icmp ne i32 %8, 0
  ret i1 %9
}

; Function Attrs: mustprogress uwtable
define hidden void @_ZN3mbp10term_graph20cground_percolate_upEPNS_4termE(ptr noundef nonnull align 8 dereferenceable(244) %0, ptr noundef %1) #4 align 2 personality ptr @__gxx_personality_v0 {
  %3 = alloca ptr, align 8
  %4 = alloca ptr, align 8
  %5 = alloca ptr, align 8
  %6 = alloca %class.ptr_vector, align 8
  %7 = alloca ptr, align 8
  %8 = alloca i32, align 4
  store ptr %0, ptr %3, align 8, !tbaa !12
  store ptr %1, ptr %4, align 8, !tbaa !20
  %9 = load ptr, ptr %3, align 8
  call void @llvm.lifetime.start.p0(i64 8, ptr %5) #3
  %10 = load ptr, ptr %4, align 8, !tbaa !20
  store ptr %10, ptr %5, align 8, !tbaa !20
  br label %11

11:                                               ; preds = %15, %2
  %12 = load ptr, ptr %5, align 8, !tbaa !20
  %13 = call noundef zeroext i1 @_ZNK3mbp4term6is_cgrEv(ptr noundef nonnull align 8 dereferenceable(88) %12)
  %14 = xor i1 %13, true
  br i1 %14, label %15, label %18

15:                                               ; preds = %11
  %16 = load ptr, ptr %5, align 8, !tbaa !20
  %17 = call noundef nonnull align 8 dereferenceable(88) ptr @_ZNK3mbp4term8get_nextEv(ptr noundef nonnull align 8 dereferenceable(88) %16)
  store ptr %17, ptr %5, align 8, !tbaa !20
  br label %11, !llvm.loop !235

18:                                               ; preds = %11
  call void @llvm.lifetime.start.p0(i64 8, ptr %6) #3
  call void @_ZN10ptr_vectorIN3mbp4termEEC2Ev(ptr noundef nonnull align 8 dereferenceable(8) %6) #3
  %19 = invoke noundef nonnull align 8 dereferenceable(8) ptr @_ZN6vectorIPN3mbp4termELb0EjE9push_backERKS2_(ptr noundef nonnull align 8 dereferenceable(8) %6, ptr noundef nonnull align 8 dereferenceable(8) %5)
          to label %20 unwind label %22

20:                                               ; preds = %18
  invoke void @_ZN3mbp10term_graph20cground_percolate_upER10ptr_vectorINS_4termEE(ptr noundef nonnull align 8 dereferenceable(244) %9, ptr noundef nonnull align 8 dereferenceable(8) %6)
          to label %21 unwind label %22

21:                                               ; preds = %20
  call void @_ZN6vectorIPN3mbp4termELb0EjED2Ev(ptr noundef nonnull align 8 dereferenceable(8) %6) #3
  call void @llvm.lifetime.end.p0(i64 8, ptr %6) #3
  call void @llvm.lifetime.end.p0(i64 8, ptr %5) #3
  ret void

22:                                               ; preds = %20, %18
  %23 = landingpad { ptr, i32 }
          cleanup
  %24 = extractvalue { ptr, i32 } %23, 0
  store ptr %24, ptr %7, align 8
  %25 = extractvalue { ptr, i32 } %23, 1
  store i32 %25, ptr %8, align 4
  call void @_ZN6vectorIPN3mbp4termELb0EjED2Ev(ptr noundef nonnull align 8 dereferenceable(8) %6) #3
  call void @llvm.lifetime.end.p0(i64 8, ptr %6) #3
  call void @llvm.lifetime.end.p0(i64 8, ptr %5) #3
  br label %26

26:                                               ; preds = %22
  %27 = load ptr, ptr %7, align 8
  %28 = load i32, ptr %8, align 4
  %29 = insertvalue { ptr, i32 } poison, ptr %27, 0
  %30 = insertvalue { ptr, i32 } %29, i32 %28, 1
  resume { ptr, i32 } %30
}