; Function Attrs: mustprogress uwtable
define hidden void @_ZN3mbp10term_graph20cground_percolate_upEPNS_4termE(ptr noundef nonnull readnone align 8 captures(none) dereferenceable(244) %0, ptr noundef %1) local_unnamed_addr #3 align 2 personality ptr @__gxx_personality_v0 {
  %3 = alloca %class.ptr_vector, align 8
  %4 = getelementptr inbounds nuw i8, ptr %1, i64 40
  %5 = load i16, ptr %4, align 8
  %6 = and i16 %5, 512
  %.not4 = icmp eq i16 %6, 0
  br i1 %.not4, label %.lr.ph, label %._crit_edge

.lr.ph:                                           ; preds = %2, %.lr.ph
  %storemerge5 = phi ptr [ %8, %.lr.ph ], [ %1, %2 ]
  %7 = getelementptr inbounds nuw i8, ptr %storemerge5, i64 32
  %8 = load ptr, ptr %7, align 8, !tbaa !199
  %9 = getelementptr inbounds nuw i8, ptr %8, i64 40
  %10 = load i16, ptr %9, align 8
  %11 = and i16 %10, 512
  %.not = icmp eq i16 %11, 0
  br i1 %.not, label %.lr.ph, label %._crit_edge, !llvm.loop !221

._crit_edge:                                      ; preds = %.lr.ph, %2
  %storemerge.lcssa = phi ptr [ %1, %2 ], [ %8, %.lr.ph ]
  call void @llvm.lifetime.start.p0(i64 8, ptr nonnull %3) #27
  store ptr null, ptr %3, align 8, !tbaa !45
  invoke void @_ZN6vectorIPN3mbp4termELb0EjE13expand_vectorEv(ptr noundef nonnull align 8 dereferenceable(8) %3)
          to label %12 unwind label %23

12:                                               ; preds = %._crit_edge
  %.pre.i = load ptr, ptr %3, align 8, !tbaa !45
  %.phi.trans.insert.i = getelementptr inbounds i8, ptr %.pre.i, i64 -4
  %.pre2.i = load i32, ptr %.phi.trans.insert.i, align 4, !tbaa !34
  %13 = zext i32 %.pre2.i to i64
  %14 = getelementptr inbounds nuw ptr, ptr %.pre.i, i64 %13
  store ptr %storemerge.lcssa, ptr %14, align 8, !tbaa !46
  %15 = add i32 %.pre2.i, 1
  store i32 %15, ptr %.phi.trans.insert.i, align 4, !tbaa !34
  invoke void @_ZN3mbp10term_graph20cground_percolate_upER10ptr_vectorINS_4termEE(ptr nonnull align 8 poison, ptr noundef nonnull align 8 dereferenceable(8) %3)
          to label %16 unwind label %23

16:                                               ; preds = %12
  %17 = load ptr, ptr %3, align 8, !tbaa !45
  %.not.i.i = icmp eq ptr %17, null
  br i1 %.not.i.i, label %_ZN6vectorIPN3mbp4termELb0EjED2Ev.exit, label %18

18:                                               ; preds = %16
  %19 = getelementptr inbounds i8, ptr %17, i64 -8
  invoke void @_ZN6memory10deallocateEPv(ptr noundef nonnull %19)
          to label %_ZN6vectorIPN3mbp4termELb0EjED2Ev.exit unwind label %20

20:                                               ; preds = %18
  %21 = landingpad { ptr, i32 }
          catch ptr null
  %22 = extractvalue { ptr, i32 } %21, 0
  call void @__clang_call_terminate(ptr %22) #28
  unreachable

_ZN6vectorIPN3mbp4termELb0EjED2Ev.exit:           ; preds = %16, %18
  call void @llvm.lifetime.end.p0(i64 8, ptr nonnull %3) #27
  ret void

23:                                               ; preds = %._crit_edge, %12
  %24 = landingpad { ptr, i32 }
          cleanup
  call void @_ZN6vectorIPN3mbp4termELb0EjED2Ev(ptr noundef nonnull align 8 dereferenceable(8) %3) #27
  call void @llvm.lifetime.end.p0(i64 8, ptr nonnull %3) #27
  resume { ptr, i32 } %24
}